((lp0
(dp1
S'tokens'
p2
(lp3
V_a
p4
aVab
p5
aVbc
p6
aVcd
p7
aVde
p8
aVef
p9
aVf_
p10
asS'query'
p11
Vabcdef
p12
sS'freq'
p13
I10
sa(dp14
g2
(lp15
V_a
p16
aVab
p17
aVbc
p18
aVc_
p19
asg11
Vabc
p20
sg13
I20
sa(dp21
g2
(lp22
V_d
p23
aVde
p24
aVef
p25
aVf_
p26
asg11
Vdef
p27
sg13
I30
sa(dp28
g2
(lp29
V_z
p30
aVzz
p31
aVz_
p32
asg11
Vzzz
p33
sg13
I200
sa(dp34
g2
(lp35
V_z
p36
aVzy
p37
aVyz
p38
aVzz
p39
aVz_
p40
asg11
Vzyzz
p41
sg13
I42
sa(dp42
g2
(lp43
V_f
p44
aVfg
p45
aVgq
p46
aVq_
p47
asg11
Vfgq
p48
sg13
I66
sa(dp49
g2
(lp50
V_a
p51
aVab
p52
aVb_
p53
asg11
Vab
p54
sg13
I100
sa(dp55
g2
(lp56
V_a
p57
aVab
p58
aVbd
p59
aVd_
p60
asg11
Vabd
p61
sg13
I30
sa(dp62
g59
(lp63
I7
asg23
(lp64
I2
asg5
(lp65
I0
aI1
aI6
aI7
asg9
(lp66
I0
aI2
asg30
(lp67
I3
aI4
asg46
(lp68
I5
asg6
(lp69
I0
aI1
asg53
(lp70
I6
asg8
(lp71
I0
aI2
asg47
(lp72
I5
asg7
(lp73
I0
asg60
(lp74
I7
asg38
(lp75
I4
asg32
(lp76
I3
aI4
asg19
(lp77
I1
asg37
(lp78
I4
asg31
(lp79
I3
aI4
asg45
(lp80
I5
asg44
(lp81
I5
asg10
(lp82
I0
aI2
asg4
(lp83
I0
aI1
aI6
aI7
astp84
.